target datalayout = "e-m:e-p270:32:32-p271:32:32-p272:64:64-i64:64-i128:128-f80:128-n8:16:32:64-S128"
target triple = "x86_64-pc-linux-gnu"

%struct.nghttp2_buf = type { ptr, ptr, ptr, ptr, ptr }
%struct.nghttp2_bufs = type { ptr, ptr, ptr, i64, i64, i64, i64, i64 }
%struct.nghttp2_buf_chain = type { ptr, %struct.nghttp2_buf }

; Function Attrs: nounwind uwtable
define hidden void @nghttp2_buf_wrap_init(ptr noundef %0, ptr noundef %1, i64 noundef %2) #0 {
  %4 = alloca ptr, align 8
  %5 = alloca ptr, align 8
  %6 = alloca i64, align 8
  store ptr %0, ptr %4, align 8, !tbaa !3
  store ptr %1, ptr %5, align 8, !tbaa !16
  store i64 %2, ptr %6, align 8, !tbaa !14
  %7 = load ptr, ptr %5, align 8, !tbaa !16
  %8 = load ptr, ptr %4, align 8, !tbaa !3
  %9 = getelementptr inbounds nuw %struct.nghttp2_buf, ptr %8, i32 0, i32 1
  store ptr %7, ptr %9, align 8, !tbaa !10
  %10 = load ptr, ptr %4, align 8, !tbaa !3
  %11 = getelementptr inbounds nuw %struct.nghttp2_buf, ptr %10, i32 0, i32 4
  store ptr %7, ptr %11, align 8, !tbaa !13
  %12 = load ptr, ptr %4, align 8, !tbaa !3
  %13 = getelementptr inbounds nuw %struct.nghttp2_buf, ptr %12, i32 0, i32 3
  store ptr %7, ptr %13, align 8, !tbaa !12
  %14 = load ptr, ptr %4, align 8, !tbaa !3
  %15 = getelementptr inbounds nuw %struct.nghttp2_buf, ptr %14, i32 0, i32 2
  store ptr %7, ptr %15, align 8, !tbaa !11
  %16 = load ptr, ptr %4, align 8, !tbaa !3
  %17 = getelementptr inbounds nuw %struct.nghttp2_buf, ptr %16, i32 0, i32 0
  store ptr %7, ptr %17, align 8, !tbaa !7
  %18 = load i64, ptr %6, align 8, !tbaa !14
  %19 = icmp ne i64 %18, 0
  br i1 %19, label %20, label %26

20:                                               ; preds = %3
  %21 = load i64, ptr %6, align 8, !tbaa !14
  %22 = load ptr, ptr %4, align 8, !tbaa !3
  %23 = getelementptr inbounds nuw %struct.nghttp2_buf, ptr %22, i32 0, i32 1
  %24 = load ptr, ptr %23, align 8, !tbaa !10
  %25 = getelementptr inbounds nuw i8, ptr %24, i64 %21
  store ptr %25, ptr %23, align 8, !tbaa !10
  br label %26

26:                                               ; preds = %20, %3
  ret void
}

; Function Attrs: nounwind uwtable
define hidden i64 @nghttp2_bufs_remove(ptr noundef %0, ptr noundef %1) #0 {
  %3 = alloca i64, align 8
  %4 = alloca ptr, align 8
  %5 = alloca ptr, align 8
  %6 = alloca i64, align 8
  %7 = alloca ptr, align 8
  %8 = alloca ptr, align 8
  %9 = alloca ptr, align 8
  %10 = alloca %struct.nghttp2_buf, align 8
  %11 = alloca i32, align 4
  store ptr %0, ptr %4, align 8, !tbaa !3
  store ptr %1, ptr %5, align 8, !tbaa !47
  call void @llvm.lifetime.start.p0(i64 8, ptr %6) #4
  call void @llvm.lifetime.start.p0(i64 8, ptr %7) #4
  call void @llvm.lifetime.start.p0(i64 8, ptr %8) #4
  call void @llvm.lifetime.start.p0(i64 8, ptr %9) #4
  call void @llvm.lifetime.start.p0(i64 40, ptr %10) #4
  store i64 0, ptr %6, align 8, !tbaa !14
  %12 = load ptr, ptr %4, align 8, !tbaa !3
  %13 = getelementptr inbounds nuw %struct.nghttp2_bufs, ptr %12, i32 0, i32 0
  %14 = load ptr, ptr %13, align 8, !tbaa !24
  store ptr %14, ptr %7, align 8, !tbaa !23
  br label %15

15:                                               ; preds = %32, %2
  %16 = load ptr, ptr %7, align 8, !tbaa !23
  %17 = icmp ne ptr %16, null
  br i1 %17, label %18, label %36

18:                                               ; preds = %15
  %19 = load ptr, ptr %7, align 8, !tbaa !23
  %20 = getelementptr inbounds nuw %struct.nghttp2_buf_chain, ptr %19, i32 0, i32 1
  %21 = getelementptr inbounds nuw %struct.nghttp2_buf, ptr %20, i32 0, i32 3
  %22 = load ptr, ptr %21, align 8, !tbaa !28
  %23 = load ptr, ptr %7, align 8, !tbaa !23
  %24 = getelementptr inbounds nuw %struct.nghttp2_buf_chain, ptr %23, i32 0, i32 1
  %25 = getelementptr inbounds nuw %struct.nghttp2_buf, ptr %24, i32 0, i32 2
  %26 = load ptr, ptr %25, align 8, !tbaa !26
  %27 = ptrtoint ptr %22 to i64
  %28 = ptrtoint ptr %26 to i64
  %29 = sub i64 %27, %28
  %30 = load i64, ptr %6, align 8, !tbaa !14
  %31 = add i64 %30, %29
  store i64 %31, ptr %6, align 8, !tbaa !14
  br label %32

32:                                               ; preds = %18
  %33 = load ptr, ptr %7, align 8, !tbaa !23
  %34 = getelementptr inbounds nuw %struct.nghttp2_buf_chain, ptr %33, i32 0, i32 0
  %35 = load ptr, ptr %34, align 8, !tbaa !36
  store ptr %35, ptr %7, align 8, !tbaa !23
  br label %15, !llvm.loop !49

36:                                               ; preds = %15
  %37 = load i64, ptr %6, align 8, !tbaa !14
  %38 = icmp eq i64 %37, 0
  br i1 %38, label %39, label %40

39:                                               ; preds = %36
  store ptr null, ptr %9, align 8, !tbaa !16
  store i64 0, ptr %3, align 8
  store i32 1, ptr %11, align 4
  br label %85

40:                                               ; preds = %36
  %41 = load ptr, ptr %4, align 8, !tbaa !3
  %42 = getelementptr inbounds nuw %struct.nghttp2_bufs, ptr %41, i32 0, i32 2
  %43 = load ptr, ptr %42, align 8, !tbaa !19
  %44 = load i64, ptr %6, align 8, !tbaa !14
  %45 = call ptr @nghttp2_mem_malloc(ptr noundef %43, i64 noundef %44)
  store ptr %45, ptr %9, align 8, !tbaa !16
  %46 = load ptr, ptr %9, align 8, !tbaa !16
  %47 = icmp eq ptr %46, null
  br i1 %47, label %48, label %49

48:                                               ; preds = %40
  store i64 -901, ptr %3, align 8
  store i32 1, ptr %11, align 4
  br label %85

49:                                               ; preds = %40
  %50 = load ptr, ptr %9, align 8, !tbaa !16
  %51 = load i64, ptr %6, align 8, !tbaa !14
  call void @nghttp2_buf_wrap_init(ptr noundef %10, ptr noundef %50, i64 noundef %51)
  %52 = load ptr, ptr %4, align 8, !tbaa !3
  %53 = getelementptr inbounds nuw %struct.nghttp2_bufs, ptr %52, i32 0, i32 0
  %54 = load ptr, ptr %53, align 8, !tbaa !24
  store ptr %54, ptr %7, align 8, !tbaa !23
  br label %55

55:                                               ; preds = %77, %49
  %56 = load ptr, ptr %7, align 8, !tbaa !23
  %57 = icmp ne ptr %56, null
  br i1 %57, label %58, label %81

58:                                               ; preds = %55
  %59 = load ptr, ptr %7, align 8, !tbaa !23
  %60 = getelementptr inbounds nuw %struct.nghttp2_buf_chain, ptr %59, i32 0, i32 1
  store ptr %60, ptr %8, align 8, !tbaa !3
  %61 = getelementptr inbounds nuw %struct.nghttp2_buf, ptr %10, i32 0, i32 3
  %62 = load ptr, ptr %61, align 8, !tbaa !12
  %63 = load ptr, ptr %8, align 8, !tbaa !3
  %64 = getelementptr inbounds nuw %struct.nghttp2_buf, ptr %63, i32 0, i32 2
  %65 = load ptr, ptr %64, align 8, !tbaa !11
  %66 = load ptr, ptr %8, align 8, !tbaa !3
  %67 = getelementptr inbounds nuw %struct.nghttp2_buf, ptr %66, i32 0, i32 3
  %68 = load ptr, ptr %67, align 8, !tbaa !12
  %69 = load ptr, ptr %8, align 8, !tbaa !3
  %70 = getelementptr inbounds nuw %struct.nghttp2_buf, ptr %69, i32 0, i32 2
  %71 = load ptr, ptr %70, align 8, !tbaa !11
  %72 = ptrtoint ptr %68 to i64
  %73 = ptrtoint ptr %71 to i64
  %74 = sub i64 %72, %73
  %75 = call ptr @nghttp2_cpymem(ptr noundef %62, ptr noundef %65, i64 noundef %74)
  %76 = getelementptr inbounds nuw %struct.nghttp2_buf, ptr %10, i32 0, i32 3
  store ptr %75, ptr %76, align 8, !tbaa !12
  br label %77

77:                                               ; preds = %58
  %78 = load ptr, ptr %7, align 8, !tbaa !23
  %79 = getelementptr inbounds nuw %struct.nghttp2_buf_chain, ptr %78, i32 0, i32 0
  %80 = load ptr, ptr %79, align 8, !tbaa !36
  store ptr %80, ptr %7, align 8, !tbaa !23
  br label %55, !llvm.loop !50

81:                                               ; preds = %55
  %82 = load ptr, ptr %9, align 8, !tbaa !16
  %83 = load ptr, ptr %5, align 8, !tbaa !47
  store ptr %82, ptr %83, align 8, !tbaa !16
  %84 = load i64, ptr %6, align 8, !tbaa !14
  store i64 %84, ptr %3, align 8
  store i32 1, ptr %11, align 4
  br label %85

85:                                               ; preds = %81, %48, %39
  call void @llvm.lifetime.end.p0(i64 40, ptr %10) #4
  call void @llvm.lifetime.end.p0(i64 8, ptr %9) #4
  call void @llvm.lifetime.end.p0(i64 8, ptr %8) #4
  call void @llvm.lifetime.end.p0(i64 8, ptr %7) #4
  call void @llvm.lifetime.end.p0(i64 8, ptr %6) #4
  %86 = load i64, ptr %3, align 8
  ret i64 %86
}