; Function Attrs: nounwind uwtable
define hidden i64 @nghttp2_bufs_remove(ptr noundef readonly captures(none) %0, ptr noundef writeonly captures(none) %1) local_unnamed_addr #1 {
  %.02226 = load ptr, ptr %0, align 8, !tbaa !30
  %.not27 = icmp eq ptr %.02226, null
  br i1 %.not27, label %._crit_edge.thread, label %.lr.ph

.lr.ph:                                           ; preds = %2, %.lr.ph
  %.02229 = phi ptr [ %.022, %.lr.ph ], [ %.02226, %2 ]
  %.02328 = phi i64 [ %10, %.lr.ph ], [ 0, %2 ]
  %3 = getelementptr inbounds nuw i8, ptr %.02229, i64 32
  %4 = load ptr, ptr %3, align 8, !tbaa !22
  %5 = getelementptr inbounds nuw i8, ptr %.02229, i64 24
  %6 = load ptr, ptr %5, align 8, !tbaa !20
  %7 = ptrtoint ptr %4 to i64
  %8 = ptrtoint ptr %6 to i64
  %9 = add i64 %.02328, %7
  %10 = sub i64 %9, %8
  %.022 = load ptr, ptr %.02229, align 8, !tbaa !30
  %.not = icmp eq ptr %.022, null
  br i1 %.not, label %._crit_edge, label %.lr.ph, !llvm.loop !39

._crit_edge:                                      ; preds = %.lr.ph
  %11 = icmp eq i64 %10, 0
  br i1 %11, label %._crit_edge.thread, label %12

12:                                               ; preds = %._crit_edge
  %13 = getelementptr inbounds nuw i8, ptr %0, i64 16
  %14 = load ptr, ptr %13, align 8, !tbaa !13
  %15 = tail call ptr @nghttp2_mem_malloc(ptr noundef %14, i64 noundef %10) #10
  %16 = icmp eq ptr %15, null
  br i1 %16, label %._crit_edge.thread, label %nghttp2_buf_wrap_init.exit.preheader

nghttp2_buf_wrap_init.exit.preheader:             ; preds = %12
  %.130 = load ptr, ptr %0, align 8, !tbaa !30
  %.not2531 = icmp eq ptr %.130, null
  br i1 %.not2531, label %nghttp2_buf_wrap_init.exit._crit_edge, label %nghttp2_buf_wrap_init.exit

nghttp2_buf_wrap_init.exit:                       ; preds = %nghttp2_buf_wrap_init.exit.preheader, %nghttp2_buf_wrap_init.exit
  %.133 = phi ptr [ %.1, %nghttp2_buf_wrap_init.exit ], [ %.130, %nghttp2_buf_wrap_init.exit.preheader ]
  %.sroa.6.032 = phi ptr [ %24, %nghttp2_buf_wrap_init.exit ], [ %15, %nghttp2_buf_wrap_init.exit.preheader ]
  %17 = getelementptr inbounds nuw i8, ptr %.133, i64 24
  %18 = load ptr, ptr %17, align 8, !tbaa !3
  %19 = getelementptr inbounds nuw i8, ptr %.133, i64 32
  %20 = load ptr, ptr %19, align 8, !tbaa !10
  %21 = ptrtoint ptr %20 to i64
  %22 = ptrtoint ptr %18 to i64
  %23 = sub i64 %21, %22
  %24 = tail call ptr @nghttp2_cpymem(ptr noundef %.sroa.6.032, ptr noundef %18, i64 noundef %23) #10
  %.1 = load ptr, ptr %.133, align 8, !tbaa !30
  %.not25 = icmp eq ptr %.1, null
  br i1 %.not25, label %nghttp2_buf_wrap_init.exit._crit_edge, label %nghttp2_buf_wrap_init.exit, !llvm.loop !40

nghttp2_buf_wrap_init.exit._crit_edge:            ; preds = %nghttp2_buf_wrap_init.exit, %nghttp2_buf_wrap_init.exit.preheader
  store ptr %15, ptr %1, align 8, !tbaa !41
  br label %._crit_edge.thread

._crit_edge.thread:                               ; preds = %2, %12, %._crit_edge, %nghttp2_buf_wrap_init.exit._crit_edge
  %.0 = phi i64 [ %10, %nghttp2_buf_wrap_init.exit._crit_edge ], [ 0, %._crit_edge ], [ -901, %12 ], [ 0, %2 ]
  ret i64 %.0
}